
program.elf:     file format elf32-tradlittlemips


Disassembly of section .bootrom:

9fc00000 <__reset_vector>:
9fc00000:	40804800 	mtc0	zero,c0_count

9fc00004 <init_cp0>:
9fc00004:	3c030040 	lui	v1,0x40
9fc00008:	34630004 	ori	v1,v1,0x4
9fc0000c:	40836000 	mtc0	v1,c0_status
9fc00010:	40806800 	mtc0	zero,c0_cause
9fc00014:	40805800 	mtc0	zero,c0_compare

9fc00018 <init_tlb>:
9fc00018:	40038000 	mfc0	v1,c0_config
9fc0001c:	7c6311c0 	ext	v1,v1,0x7,0x3
9fc00020:	24070001 	li	a3,1
9fc00024:	1467000e 	bne	v1,a3,9fc00060 <init_icache>
9fc00028:	40028001 	mfc0	v0,c0_config1
9fc0002c:	7c432e40 	ext	v1,v0,0x19,0x6
9fc00030:	40801000 	mtc0	zero,c0_entrylo0
9fc00034:	40801800 	mtc0	zero,c0_entrylo1
9fc00038:	40802800 	mtc0	zero,c0_pagemask
9fc0003c:	40803000 	mtc0	zero,c0_wired
9fc00040:	3c048000 	lui	a0,0x8000

9fc00044 <next_tlb_entry>:
9fc00044:	40830000 	mtc0	v1,c0_index
9fc00048:	40845000 	mtc0	a0,c0_entryhi
9fc0004c:	000000c0 	ehb
9fc00050:	42000002 	tlbwi
9fc00054:	20844000 	addi	a0,a0,16384
9fc00058:	1460fffa 	bnez	v1,9fc00044 <next_tlb_entry>
9fc0005c:	2063ffff 	addi	v1,v1,-1

9fc00060 <init_icache>:
9fc00060:	40028001 	mfc0	v0,c0_config1
9fc00064:	7c4314c0 	ext	v1,v0,0x13,0x3
9fc00068:	10600010 	beqz	v1,9fc000ac <done_icache>
9fc0006c:	00000000 	nop
9fc00070:	24060002 	li	a2,2
9fc00074:	00661804 	sllv	v1,a2,v1
9fc00078:	7c441580 	ext	a0,v0,0x16,0x3
9fc0007c:	24060040 	li	a2,64
9fc00080:	00862004 	sllv	a0,a2,a0
9fc00084:	7c451400 	ext	a1,v0,0x10,0x3
9fc00088:	20a50001 	addi	a1,a1,1
9fc0008c:	70852002 	mul	a0,a0,a1
9fc00090:	3c068000 	lui	a2,0x8000
9fc00094:	4080e000 	mtc0	zero,c0_taglo
9fc00098:	00803825 	move	a3,a0

9fc0009c <next_icache_tag>:
9fc0009c:	bcc80000 	cache	0x8,0(a2)
9fc000a0:	20e7ffff 	addi	a3,a3,-1
9fc000a4:	14e0fffd 	bnez	a3,9fc0009c <next_icache_tag>
9fc000a8:	00c33020 	add	a2,a2,v1

9fc000ac <done_icache>:
9fc000ac:	40028000 	mfc0	v0,c0_config
9fc000b0:	24030003 	li	v1,3
9fc000b4:	7c621004 	ins	v0,v1,0x0,0x3
9fc000b8:	40828000 	mtc0	v0,c0_config
9fc000bc:	3c069fc0 	lui	a2,0x9fc0
9fc000c0:	24c600cc 	addiu	a2,a2,204
9fc000c4:	00c00008 	jr	a2
9fc000c8:	000000c0 	ehb

9fc000cc <init_dcache>:
9fc000cc:	40028001 	mfc0	v0,c0_config1
9fc000d0:	7c431280 	ext	v1,v0,0xa,0x3
9fc000d4:	10600011 	beqz	v1,9fc0011c <done_dcache>
9fc000d8:	00000000 	nop
9fc000dc:	24060002 	li	a2,2
9fc000e0:	00661804 	sllv	v1,a2,v1
9fc000e4:	7c441340 	ext	a0,v0,0xd,0x3
9fc000e8:	24060040 	li	a2,64
9fc000ec:	00862004 	sllv	a0,a2,a0
9fc000f0:	7c4511c0 	ext	a1,v0,0x7,0x3
9fc000f4:	20a50001 	addi	a1,a1,1
9fc000f8:	70852002 	mul	a0,a0,a1
9fc000fc:	3c068000 	lui	a2,0x8000
9fc00100:	4080e000 	mtc0	zero,c0_taglo
9fc00104:	4080e002 	mtc0	zero,c0_taglo1
9fc00108:	00803825 	move	a3,a0

9fc0010c <next_dcache_tag>:
9fc0010c:	bcc90000 	cache	0x9,0(a2)
9fc00110:	20e7ffff 	addi	a3,a3,-1
9fc00114:	14e0fffd 	bnez	a3,9fc0010c <next_dcache_tag>
9fc00118:	00c33020 	add	a2,a2,v1

9fc0011c <done_dcache>:
9fc0011c:	3c1f9fc0 	lui	ra,0x9fc0
9fc00120:	27ff013c 	addiu	ra,ra,316
9fc00124:	00002025 	move	a0,zero
9fc00128:	3c029fc0 	lui	v0,0x9fc0
9fc0012c:	24420144 	addiu	v0,v0,324
9fc00130:	4082f000 	mtc0	v0,c0_errorepc
9fc00134:	000000c0 	ehb
9fc00138:	42000018 	eret

9fc0013c <all_done>:
9fc0013c:	1000ffff 	b	9fc0013c <all_done>
9fc00140:	00000000 	nop

9fc00144 <_start>:
9fc00144:	03e08025 	move	s0,ra
9fc00148:	3c1c8001 	lui	gp,0x8001
9fc0014c:	279c87a0 	addiu	gp,gp,-30816
9fc00150:	3c1d8004 	lui	sp,0x8004
9fc00154:	27bd0000 	addiu	sp,sp,0
9fc00158:	3c028000 	lui	v0,0x8000
9fc0015c:	244207a0 	addiu	v0,v0,1952
9fc00160:	3c038000 	lui	v1,0x8000
9fc00164:	246307a0 	addiu	v1,v1,1952
9fc00168:	10430004 	beq	v0,v1,9fc0017c <_start+0x38>
9fc0016c:	00000000 	nop
9fc00170:	24420004 	addiu	v0,v0,4
9fc00174:	1443fffe 	bne	v0,v1,9fc00170 <_start+0x2c>
9fc00178:	ac40fffc 	sw	zero,-4(v0)
9fc0017c:	24040000 	li	a0,0
9fc00180:	27bdfff0 	addiu	sp,sp,-16
9fc00184:	40026000 	mfc0	v0,c0_status
9fc00188:	7c02b584 	ins	v0,zero,0x16,0x1
9fc0018c:	40826000 	mtc0	v0,c0_status
9fc00190:	000000c0 	ehb
9fc00194:	3c088000 	lui	t0,0x8000
9fc00198:	25080204 	addiu	t0,t0,516
9fc0019c:	0100f809 	jalr	t0
9fc001a0:	00000000 	nop
9fc001a4:	0200f825 	move	ra,s0
9fc001a8:	03e00008 	jr	ra
9fc001ac:	00000000 	nop

Disassembly of section .exception_vector:

80000000 <__exception_entry>:
80000000:	3c1b0000 	lui	k1,0x0
80000004:	277b0000 	addiu	k1,k1,0
80000008:	1360fffd 	beqz	k1,80000000 <__exception_entry>
8000000c:	00000000 	nop
80000010:	03600008 	jr	k1
80000014:	00000000 	nop
	...

80000080 <__xtlb_refill_loop>:
80000080:	3c1b0000 	lui	k1,0x0
80000084:	277b0000 	addiu	k1,k1,0
80000088:	1360fffd 	beqz	k1,80000080 <__xtlb_refill_loop>
8000008c:	00000000 	nop
80000090:	03600008 	jr	k1
80000094:	00000000 	nop
	...

80000100 <__cache_error_loop>:
80000100:	3c1b0000 	lui	k1,0x0
80000104:	277b0000 	addiu	k1,k1,0
80000108:	1360fffd 	beqz	k1,80000100 <__cache_error_loop>
8000010c:	00000000 	nop
80000110:	03600008 	jr	k1
80000114:	00000000 	nop
	...

80000180 <__general_exception_loop>:
80000180:	3c1b0000 	lui	k1,0x0
80000184:	277b0000 	addiu	k1,k1,0
80000188:	1360fffd 	beqz	k1,80000180 <__general_exception_loop>
8000018c:	00000000 	nop
80000190:	03600008 	jr	k1
80000194:	00000000 	nop
	...

Disassembly of section .text:

80000200 <__exception_handle>:
80000200:	00000000 	nop

80000204 <main>:
80000204:	3c0ebf70 	lui	t6,0xbf70
80000208:	3c0fbf70 	lui	t7,0xbf70
8000020c:	35ef0004 	ori	t7,t7,0x4
80000210:	3c10bf70 	lui	s0,0xbf70
80000214:	36100008 	ori	s0,s0,0x8
80000218:	3c11bf70 	lui	s1,0xbf70
8000021c:	3631000c 	ori	s1,s1,0xc
80000220:	24140000 	li	s4,0
80000224:	24130000 	li	s3,0
80000228:	24120000 	li	s2,0
8000022c:	3c151600 	lui	s5,0x1600
80000230:	3c171000 	lui	s7,0x1000
80000234:	241600f7 	li	s6,247

80000238 <readIO>:
80000238:	3c0cbf80 	lui	t4,0xbf80
8000023c:	258c0008 	addiu	t4,t4,8
80000240:	8d8a0000 	lw	t2,0(t4)
80000244:	3c01000f 	lui	at,0xf
80000248:	3421ffff 	ori	at,at,0xffff
8000024c:	01415824 	and	t3,t2,at
80000250:	ad8b0000 	sw	t3,0(t4)
80000254:	240b00f0 	li	t3,240
80000258:	adcb0000 	sw	t3,0(t6)
8000025c:	ad760000 	sw	s6,0(t3)
80000260:	ae2b0000 	sw	t3,0(s1)
80000264:	00000000 	nop
80000268:	240b0001 	li	t3,1
8000026c:	240c0001 	li	t4,1
80000270:	028b5824 	and	t3,s4,t3
80000274:	156c000a 	bne	t3,t4,800002a0 <decode>
80000278:	00000000 	nop
8000027c:	240b00f6 	li	t3,246
80000280:	16cb0005 	bne	s6,t3,80000298 <blinkdp>
80000284:	00000000 	nop
80000288:	241600f7 	li	s6,247
8000028c:	ae360000 	sw	s6,0(s1)
80000290:	10000003 	b	800002a0 <decode>
80000294:	00000000 	nop

80000298 <blinkdp>:
80000298:	241600f6 	li	s6,246
8000029c:	ae360000 	sw	s6,0(s1)

800002a0 <decode>:
800002a0:	240b0004 	li	t3,4
800002a4:	116a001d 	beq	t3,t2,8000031c <tr1x>
800002a8:	00000000 	nop
800002ac:	240b0008 	li	t3,8
800002b0:	116a001a 	beq	t3,t2,8000031c <tr1x>
800002b4:	00000000 	nop
800002b8:	240b000c 	li	t3,12
800002bc:	116a0030 	beq	t3,t2,80000380 <tr2x>
800002c0:	00000000 	nop
800002c4:	240b0001 	li	t3,1
800002c8:	116a0046 	beq	t3,t2,800003e4 <tl1x>
800002cc:	00000000 	nop
800002d0:	240b0010 	li	t3,16
800002d4:	116a0043 	beq	t3,t2,800003e4 <tl1x>
800002d8:	00000000 	nop
800002dc:	240b0011 	li	t3,17
800002e0:	116a0059 	beq	t3,t2,80000448 <tl2x>
800002e4:	00000000 	nop
800002e8:	240b0005 	li	t3,5
800002ec:	116a006f 	beq	t3,t2,800004ac <forward>
800002f0:	00000000 	nop
800002f4:	240b0018 	li	t3,24
800002f8:	116a0084 	beq	t3,t2,8000050c <reverse>
800002fc:	00000000 	nop

80000300 <stop>:
80000300:	3c0b00ff 	lui	t3,0xff
80000304:	356bffff 	ori	t3,t3,0xffff
80000308:	02aba824 	and	s5,s5,t3
8000030c:	3c0b1600 	lui	t3,0x1600
80000310:	02aba825 	or	s5,s5,t3
80000314:	100000db 	b	80000684 <decodecompass>
80000318:	00000000 	nop

8000031c <tr1x>:
8000031c:	240b0002 	li	t3,2
80000320:	240c0002 	li	t4,2
80000324:	028b5824 	and	t3,s4,t3
80000328:	156c00d6 	bne	t3,t4,80000684 <decodecompass>
8000032c:	00000000 	nop
80000330:	3c0bff00 	lui	t3,0xff00
80000334:	02eb6024 	and	t4,s7,t3
80000338:	3c0b1500 	lui	t3,0x1500
8000033c:	116c0009 	beq	t3,t4,80000364 <continuecw1x>
80000340:	00000000 	nop
80000344:	3c0b0100 	lui	t3,0x100
80000348:	02ebb821 	addu	s7,s7,t3
8000034c:	3c0b00ff 	lui	t3,0xff
80000350:	356bffff 	ori	t3,t3,0xffff
80000354:	02aba824 	and	s5,s5,t3
80000358:	02b7a825 	or	s5,s5,s7
8000035c:	10000083 	b	8000056c <incrementcompass>
80000360:	00000000 	nop

80000364 <continuecw1x>:
80000364:	3c0b00ff 	lui	t3,0xff
80000368:	356bffff 	ori	t3,t3,0xffff
8000036c:	02aba824 	and	s5,s5,t3
80000370:	3c171000 	lui	s7,0x1000
80000374:	02b7a825 	or	s5,s5,s7
80000378:	1000007c 	b	8000056c <incrementcompass>
8000037c:	00000000 	nop

80000380 <tr2x>:
80000380:	240b0004 	li	t3,4
80000384:	240c0004 	li	t4,4
80000388:	028b5824 	and	t3,s4,t3
8000038c:	156c00bd 	bne	t3,t4,80000684 <decodecompass>
80000390:	00000000 	nop
80000394:	3c0bff00 	lui	t3,0xff00
80000398:	02eb6024 	and	t4,s7,t3
8000039c:	3c0b1500 	lui	t3,0x1500
800003a0:	116cfff0 	beq	t3,t4,80000364 <continuecw1x>
800003a4:	00000000 	nop
800003a8:	3c0b0100 	lui	t3,0x100
800003ac:	02ebb821 	addu	s7,s7,t3
800003b0:	3c0b00ff 	lui	t3,0xff
800003b4:	356bffff 	ori	t3,t3,0xffff
800003b8:	02aba824 	and	s5,s5,t3
800003bc:	02b7a825 	or	s5,s5,s7
800003c0:	1000006a 	b	8000056c <incrementcompass>
800003c4:	00000000 	nop

800003c8 <continuecw2x>:
800003c8:	3c0b00ff 	lui	t3,0xff
800003cc:	356bffff 	ori	t3,t3,0xffff
800003d0:	02aba824 	and	s5,s5,t3
800003d4:	3c171000 	lui	s7,0x1000
800003d8:	02b7a825 	or	s5,s5,s7
800003dc:	10000063 	b	8000056c <incrementcompass>
800003e0:	00000000 	nop

800003e4 <tl1x>:
800003e4:	240b0002 	li	t3,2
800003e8:	240c0002 	li	t4,2
800003ec:	028b5824 	and	t3,s4,t3
800003f0:	156c00a4 	bne	t3,t4,80000684 <decodecompass>
800003f4:	00000000 	nop
800003f8:	3c0bff00 	lui	t3,0xff00
800003fc:	02eb6024 	and	t4,s7,t3
80000400:	3c0b1000 	lui	t3,0x1000
80000404:	116c0009 	beq	t3,t4,8000042c <continueccw1x>
80000408:	00000000 	nop
8000040c:	3c0b0100 	lui	t3,0x100
80000410:	02ebb823 	subu	s7,s7,t3
80000414:	3c0b00ff 	lui	t3,0xff
80000418:	356bffff 	ori	t3,t3,0xffff
8000041c:	02aba824 	and	s5,s5,t3
80000420:	02b7a825 	or	s5,s5,s7
80000424:	1000006c 	b	800005d8 <decrementcompass>
80000428:	00000000 	nop

8000042c <continueccw1x>:
8000042c:	3c0b00ff 	lui	t3,0xff
80000430:	356bffff 	ori	t3,t3,0xffff
80000434:	02aba824 	and	s5,s5,t3
80000438:	3c171500 	lui	s7,0x1500
8000043c:	02b7a825 	or	s5,s5,s7
80000440:	10000065 	b	800005d8 <decrementcompass>
80000444:	00000000 	nop

80000448 <tl2x>:
80000448:	240b0004 	li	t3,4
8000044c:	240c0004 	li	t4,4
80000450:	028b5824 	and	t3,s4,t3
80000454:	156c0098 	bne	t3,t4,800006b8 <counter>
80000458:	00000000 	nop
8000045c:	3c0bff00 	lui	t3,0xff00
80000460:	02eb6024 	and	t4,s7,t3
80000464:	3c0b1000 	lui	t3,0x1000
80000468:	116cfff0 	beq	t3,t4,8000042c <continueccw1x>
8000046c:	00000000 	nop
80000470:	3c0b0100 	lui	t3,0x100
80000474:	02ebb823 	subu	s7,s7,t3
80000478:	3c0b00ff 	lui	t3,0xff
8000047c:	356bffff 	ori	t3,t3,0xffff
80000480:	02aba824 	and	s5,s5,t3
80000484:	02b7a825 	or	s5,s5,s7
80000488:	10000053 	b	800005d8 <decrementcompass>
8000048c:	00000000 	nop

80000490 <continueccw2x>:
80000490:	3c0b00ff 	lui	t3,0xff
80000494:	356bffff 	ori	t3,t3,0xffff
80000498:	02aba824 	and	s5,s5,t3
8000049c:	3c171500 	lui	s7,0x1500
800004a0:	02b7a825 	or	s5,s5,s7
800004a4:	1000004c 	b	800005d8 <decrementcompass>
800004a8:	00000000 	nop

800004ac <forward>:
800004ac:	240b0001 	li	t3,1
800004b0:	240c0001 	li	t4,1
800004b4:	028b5824 	and	t3,s4,t3
800004b8:	156c0072 	bne	t3,t4,80000684 <decodecompass>
800004bc:	00000000 	nop
800004c0:	3c0bff00 	lui	t3,0xff00
800004c4:	02ab5824 	and	t3,s5,t3
800004c8:	3c0c1000 	lui	t4,0x1000
800004cc:	158b0008 	bne	t4,t3,800004f0 <blinka>
800004d0:	00000000 	nop
800004d4:	3c0b00ff 	lui	t3,0xff
800004d8:	356bffff 	ori	t3,t3,0xffff
800004dc:	02ab5824 	and	t3,s5,t3
800004e0:	3c0bff00 	lui	t3,0xff00
800004e4:	02aba825 	or	s5,s5,t3
800004e8:	10000066 	b	80000684 <decodecompass>
800004ec:	00000000 	nop

800004f0 <blinka>:
800004f0:	3c0b00ff 	lui	t3,0xff
800004f4:	356bffff 	ori	t3,t3,0xffff
800004f8:	02aba824 	and	s5,s5,t3
800004fc:	3c0b1000 	lui	t3,0x1000
80000500:	02aba825 	or	s5,s5,t3
80000504:	1000005f 	b	80000684 <decodecompass>
80000508:	00000000 	nop

8000050c <reverse>:
8000050c:	240b0001 	li	t3,1
80000510:	240c0001 	li	t4,1
80000514:	028b5824 	and	t3,s4,t3
80000518:	156c005a 	bne	t3,t4,80000684 <decodecompass>
8000051c:	00000000 	nop
80000520:	3c0bff00 	lui	t3,0xff00
80000524:	02ab5824 	and	t3,s5,t3
80000528:	3c0c1300 	lui	t4,0x1300
8000052c:	158b0008 	bne	t4,t3,80000550 <blinkd>
80000530:	00000000 	nop
80000534:	3c0b00ff 	lui	t3,0xff
80000538:	356bffff 	ori	t3,t3,0xffff
8000053c:	02ab5824 	and	t3,s5,t3
80000540:	3c0bff00 	lui	t3,0xff00
80000544:	02aba825 	or	s5,s5,t3
80000548:	1000004e 	b	80000684 <decodecompass>
8000054c:	00000000 	nop

80000550 <blinkd>:
80000550:	3c0b00ff 	lui	t3,0xff
80000554:	356bffff 	ori	t3,t3,0xffff
80000558:	02aba824 	and	s5,s5,t3
8000055c:	3c0b1300 	lui	t3,0x1300
80000560:	02aba825 	or	s5,s5,t3
80000564:	10000047 	b	80000684 <decodecompass>
80000568:	00000000 	nop

8000056c <incrementcompass>:
8000056c:	240b0359 	li	t3,857
80000570:	15720004 	bne	t3,s2,80000584 <inccompare>
80000574:	00000000 	nop
80000578:	24120000 	li	s2,0
8000057c:	10000041 	b	80000684 <decodecompass>
80000580:	00000000 	nop

80000584 <inccompare>:
80000584:	324b000f 	andi	t3,s2,0xf
80000588:	240c0009 	li	t4,9
8000058c:	156c000f 	bne	t3,t4,800005cc <addones>
80000590:	00000000 	nop
80000594:	240bfff0 	li	t3,-16
80000598:	024b9024 	and	s2,s2,t3
8000059c:	324b00f0 	andi	t3,s2,0xf0
800005a0:	240c0090 	li	t4,144
800005a4:	156c0006 	bne	t3,t4,800005c0 <addtens>
800005a8:	00000000 	nop
800005ac:	240bff0f 	li	t3,-241
800005b0:	024b9024 	and	s2,s2,t3
800005b4:	22520100 	addi	s2,s2,256
800005b8:	10000032 	b	80000684 <decodecompass>
800005bc:	00000000 	nop

800005c0 <addtens>:
800005c0:	22520010 	addi	s2,s2,16
800005c4:	1000002f 	b	80000684 <decodecompass>
800005c8:	00000000 	nop

800005cc <addones>:
800005cc:	22520001 	addi	s2,s2,1
800005d0:	1000002c 	b	80000684 <decodecompass>
800005d4:	00000000 	nop

800005d8 <decrementcompass>:
800005d8:	240b0000 	li	t3,0
800005dc:	124b0010 	beq	s2,t3,80000620 <wrap>
800005e0:	00000000 	nop
800005e4:	240b000f 	li	t3,15
800005e8:	024b5824 	and	t3,s2,t3
800005ec:	240c0000 	li	t4,0
800005f0:	156c0020 	bne	t3,t4,80000674 <subones>
800005f4:	00000000 	nop
800005f8:	240b00f0 	li	t3,240
800005fc:	024b5824 	and	t3,s2,t3
80000600:	240c0000 	li	t4,0
80000604:	156c0015 	bne	t3,t4,8000065c <subtens>
80000608:	00000000 	nop
8000060c:	240b0f00 	li	t3,3840
80000610:	024b5824 	and	t3,s2,t3
80000614:	240c0000 	li	t4,0
80000618:	156c0006 	bne	t3,t4,80000634 <subhundereds>
8000061c:	00000000 	nop

80000620 <wrap>:
80000620:	3c0bff00 	lui	t3,0xff00
80000624:	02aba824 	and	s5,s5,t3
80000628:	24120359 	li	s2,857
8000062c:	10000015 	b	80000684 <decodecompass>
80000630:	00000000 	nop

80000634 <subhundereds>:
80000634:	240c0100 	li	t4,256
80000638:	024c9022 	sub	s2,s2,t4
8000063c:	240c0090 	li	t4,144
80000640:	240bff0f 	li	t3,-241
80000644:	024b9024 	and	s2,s2,t3
80000648:	024c9025 	or	s2,s2,t4
8000064c:	240c0009 	li	t4,9
80000650:	024c9025 	or	s2,s2,t4
80000654:	1000000b 	b	80000684 <decodecompass>
80000658:	00000000 	nop

8000065c <subtens>:
8000065c:	240c0010 	li	t4,16
80000660:	024c9022 	sub	s2,s2,t4
80000664:	240c0009 	li	t4,9
80000668:	024c9025 	or	s2,s2,t4
8000066c:	10000005 	b	80000684 <decodecompass>
80000670:	00000000 	nop

80000674 <subones>:
80000674:	240c0001 	li	t4,1
80000678:	024c9022 	sub	s2,s2,t4
8000067c:	10000001 	b	80000684 <decodecompass>
80000680:	00000000 	nop

80000684 <decodecompass>:
80000684:	324c0f00 	andi	t4,s2,0xf00
80000688:	000c6200 	sll	t4,t4,0x8
8000068c:	316b0000 	andi	t3,t3,0x0
80000690:	018b5820 	add	t3,t4,t3
80000694:	324c00f0 	andi	t4,s2,0xf0
80000698:	000c6100 	sll	t4,t4,0x4
8000069c:	018b5820 	add	t3,t4,t3
800006a0:	324c000f 	andi	t4,s2,0xf
800006a4:	018b5820 	add	t3,t4,t3
800006a8:	3c0cff00 	lui	t4,0xff00
800006ac:	02aca824 	and	s5,s5,t4
800006b0:	0175a820 	add	s5,t3,s5
800006b4:	ae150000 	sw	s5,0(s0)

800006b8 <counter>:
800006b8:	3c0b0007 	lui	t3,0x7
800006bc:	356b441e 	ori	t3,t3,0x441e
800006c0:	126b0028 	beq	s3,t3,80000764 <onehz>
800006c4:	00000000 	nop
800006c8:	3c0b0001 	lui	t3,0x1
800006cc:	356b7406 	ori	t3,t3,0x7406
800006d0:	126b0026 	beq	s3,t3,8000076c <fivehz>
800006d4:	00000000 	nop
800006d8:	3c0b0002 	lui	t3,0x2
800006dc:	356be80c 	ori	t3,t3,0xe80c
800006e0:	126b0022 	beq	s3,t3,8000076c <fivehz>
800006e4:	00000000 	nop
800006e8:	3c0b0004 	lui	t3,0x4
800006ec:	356b5c12 	ori	t3,t3,0x5c12
800006f0:	126b001e 	beq	s3,t3,8000076c <fivehz>
800006f4:	00000000 	nop
800006f8:	3c0b0005 	lui	t3,0x5
800006fc:	356bd018 	ori	t3,t3,0xd018
80000700:	126b001a 	beq	s3,t3,8000076c <fivehz>
80000704:	00000000 	nop
80000708:	3c0b0003 	lui	t3,0x3
8000070c:	356ba20f 	ori	t3,t3,0xa20f
80000710:	126b0017 	beq	s3,t3,80000770 <tenhz>
80000714:	00000000 	nop
80000718:	3c0b0004 	lui	t3,0x4
8000071c:	356b5c12 	ori	t3,t3,0x5c12
80000720:	126b0013 	beq	s3,t3,80000770 <tenhz>
80000724:	00000000 	nop
80000728:	3c0b0005 	lui	t3,0x5
8000072c:	356b1615 	ori	t3,t3,0x1615
80000730:	126b000f 	beq	s3,t3,80000770 <tenhz>
80000734:	00000000 	nop
80000738:	3c0b0005 	lui	t3,0x5
8000073c:	356bd018 	ori	t3,t3,0xd018
80000740:	126b000b 	beq	s3,t3,80000770 <tenhz>
80000744:	00000000 	nop
80000748:	3c0b0006 	lui	t3,0x6
8000074c:	356b8a1b 	ori	t3,t3,0x8a1b
80000750:	126b0007 	beq	s3,t3,80000770 <tenhz>
80000754:	00000000 	nop
80000758:	24140000 	li	s4,0
8000075c:	10000005 	b	80000774 <increment>
80000760:	00000000 	nop

80000764 <onehz>:
80000764:	24130000 	li	s3,0
80000768:	3a940001 	xori	s4,s4,0x1

8000076c <fivehz>:
8000076c:	3a940002 	xori	s4,s4,0x2

80000770 <tenhz>:
80000770:	3a940004 	xori	s4,s4,0x4

80000774 <increment>:
80000774:	22730001 	addi	s3,s3,1

80000778 <repeat>:
80000778:	1000feaf 	b	80000238 <readIO>
8000077c:	00000000 	nop

Disassembly of section .debug_aranges:

00000000 <.debug_aranges>:
   0:	0000001c 	0x1c
   4:	00000002 	srl	zero,zero,0x0
   8:	00040000 	sll	zero,a0,0x0
   c:	00000000 	nop
  10:	9fc00144 	0x9fc00144
  14:	0000006c 	0x6c
	...
  20:	0000001c 	0x1c
  24:	00580002 	0x580002
  28:	00040000 	sll	zero,a0,0x0
  2c:	00000000 	nop
  30:	9fc00000 	0x9fc00000
  34:	00000144 	0x144
	...
  40:	0000001c 	0x1c
  44:	00b00002 	0xb00002
  48:	00040000 	sll	zero,a0,0x0
  4c:	00000000 	nop
  50:	80000000 	lb	zero,0(zero)
  54:	00000198 	0x198
	...
  60:	0000001c 	0x1c
  64:	010e0002 	0x10e0002
  68:	00040000 	sll	zero,a0,0x0
  6c:	00000000 	nop
  70:	80000200 	lb	zero,512(zero)
  74:	00000004 	sllv	zero,zero,zero
	...
  80:	0000001c 	0x1c
  84:	01670002 	0x1670002
  88:	00040000 	sll	zero,a0,0x0
  8c:	00000000 	nop
  90:	80000204 	lb	zero,516(zero)
  94:	0000057c 	0x57c
	...

Disassembly of section .debug_info:

00000000 <.debug_info>:
   0:	00000054 	0x54
   4:	00000002 	srl	zero,zero,0x0
   8:	01040000 	0x1040000
   c:	00000000 	nop
  10:	9fc00144 	0x9fc00144
  14:	9fc001b0 	0x9fc001b0
  18:	30747263 	andi	s4,v1,0x7263
  1c:	4e00532e 	msub.ps	$f12,$f16,$f10,$f0
  20:	43455c3a 	c0	0x1455c3a
  24:	30343545 	andi	s4,at,0x3545
  28:	756f535c 	jalx	5bd4d70 <__memory_size+0x5bb5570>
  2c:	46656372 	c1	0x656372
  30:	73656c69 	0x73656c69
  34:	6f72505c 	0x6f72505c
  38:	7463656a 	jalx	18d95a8 <__memory_size+0x18b9da8>
  3c:	6f735c31 	0x6f735c31
  40:	61777466 	0x61777466
  44:	47006572 	bz.b	$w0,19610 <DP3_SSEG_EN+0x19518>
  48:	4120554e 	0x4120554e
  4c:	2e322053 	sltiu	s2,s1,8275
  50:	392e3432 	xori	t6,t1,0x3432
  54:	80010030 	lb	at,48(zero)
  58:	00000054 	0x54
  5c:	00140002 	srl	zero,s4,0x0
  60:	01040000 	0x1040000
  64:	00000048 	0x48
  68:	9fc00000 	0x9fc00000
  6c:	9fc00144 	0x9fc00144
  70:	746f6f62 	jalx	1bdbd88 <__memory_size+0x1bbc588>
  74:	4e00532e 	msub.ps	$f12,$f16,$f10,$f0
  78:	43455c3a 	c0	0x1455c3a
  7c:	30343545 	andi	s4,at,0x3545
  80:	756f535c 	jalx	5bd4d70 <__memory_size+0x5bb5570>
  84:	46656372 	c1	0x656372
  88:	73656c69 	0x73656c69
  8c:	6f72505c 	0x6f72505c
  90:	7463656a 	jalx	18d95a8 <__memory_size+0x18b9da8>
  94:	6f735c31 	0x6f735c31
  98:	61777466 	0x61777466
  9c:	47006572 	bz.b	$w0,19668 <DP3_SSEG_EN+0x19570>
  a0:	4120554e 	0x4120554e
  a4:	2e322053 	sltiu	s2,s1,8275
  a8:	392e3432 	xori	t6,t1,0x3432
  ac:	80010030 	lb	at,48(zero)
  b0:	0000005a 	0x5a
  b4:	00280002 	ror	zero,t0,0x0
  b8:	01040000 	0x1040000
  bc:	000000ce 	0xce
  c0:	80000000 	lb	zero,0(zero)
  c4:	80000198 	lb	zero,408(zero)
  c8:	65637865 	0x65637865
  cc:	6f697470 	0x6f697470
  d0:	532e736e 	beql	t9,t6,1ce8c <DP3_SSEG_EN+0x1cd94>
  d4:	5c3a4e00 	0x5c3a4e00
  d8:	35454345 	ori	a1,t2,0x4345
  dc:	535c3034 	beql	k0,gp,c1b0 <DP3_SSEG_EN+0xc0b8>
  e0:	6372756f 	0x6372756f
  e4:	6c694665 	0x6c694665
  e8:	505c7365 	beql	v0,gp,1ce80 <DP3_SSEG_EN+0x1cd88>
  ec:	656a6f72 	0x656a6f72
  f0:	5c317463 	0x5c317463
  f4:	74666f73 	jalx	199bdcc <__memory_size+0x197c5cc>
  f8:	65726177 	0x65726177
  fc:	554e4700 	bnel	t2,t6,11d00 <DP3_SSEG_EN+0x11c08>
 100:	20534120 	addi	s3,v0,16672
 104:	34322e32 	ori	s2,at,0x2e32
 108:	0030392e 	0x30392e
 10c:	00558001 	movt	s0,v0,$fcc5
 110:	00020000 	sll	zero,v0,0x0
 114:	0000003c 	0x3c
 118:	011b0104 	0x11b0104
 11c:	02000000 	0x2000000
 120:	02048000 	0x2048000
 124:	75648000 	jalx	5920000 <__memory_size+0x5900800>
 128:	2e796d6d 	sltiu	t9,s3,28013
 12c:	3a4e0053 	xori	t6,s2,0x53
 130:	4543455c 	0x4543455c
 134:	5c303435 	0x5c303435
 138:	72756f53 	udi3	s3,s5,t5,0x1d
 13c:	69466563 	0x69466563
 140:	5c73656c 	0x5c73656c
 144:	6a6f7250 	0x6a6f7250
 148:	31746365 	andi	s4,t3,0x6365
 14c:	666f735c 	0x666f735c
 150:	72617774 	q16sll	xr13,xr13,xr5,xr8,9
 154:	4e470065 	c3	0x470065
 158:	53412055 	beql	k0,at,82b0 <DP3_SSEG_EN+0x81b8>
 15c:	322e3220 	andi	t6,s1,0x3220
 160:	30392e34 	andi	t9,at,0x2e34
 164:	48800100 	0x48800100
 168:	02000000 	0x2000000
 16c:	00005000 	sll	t2,zero,0x0
 170:	52010400 	beql	s0,at,1174 <DP3_SSEG_EN+0x107c>
 174:	04000001 	bltz	zero,17c <DP3_SSEG_EN+0x84>
 178:	80800002 	lb	zero,2(a0)
 17c:	6d800007 	0x6d800007
 180:	2e6e6961 	sltiu	t6,s3,26977
 184:	3a4e0053 	xori	t6,s2,0x53
 188:	4543455c 	0x4543455c
 18c:	5c303435 	0x5c303435
 190:	6a6f7250 	0x6a6f7250
 194:	31746365 	andi	s4,t3,0x6365
 198:	666f735c 	0x666f735c
 19c:	72617774 	q16sll	xr13,xr13,xr5,xr8,9
 1a0:	4e470065 	c3	0x470065
 1a4:	53412055 	beql	k0,at,82fc <DP3_SSEG_EN+0x8204>
 1a8:	322e3220 	andi	t6,s1,0x3220
 1ac:	30392e34 	andi	t9,at,0x2e34
 1b0:	Address 0x00000000000001b0 is out of bounds.


Disassembly of section .debug_abbrev:

00000000 <.debug_abbrev>:
   0:	10001101 	b	4408 <DP3_SSEG_EN+0x4310>
   4:	12011106 	beq	s0,at,4420 <DP3_SSEG_EN+0x4328>
   8:	1b080301 	0x1b080301
   c:	13082508 	beq	t8,t0,9430 <DP3_SSEG_EN+0x9338>
  10:	00000005 	lsa	zero,zero,zero,0x1
  14:	10001101 	b	441c <DP3_SSEG_EN+0x4324>
  18:	12011106 	beq	s0,at,4434 <DP3_SSEG_EN+0x433c>
  1c:	1b080301 	0x1b080301
  20:	13082508 	beq	t8,t0,9444 <DP3_SSEG_EN+0x934c>
  24:	00000005 	lsa	zero,zero,zero,0x1
  28:	10001101 	b	4430 <DP3_SSEG_EN+0x4338>
  2c:	12011106 	beq	s0,at,4448 <DP3_SSEG_EN+0x4350>
  30:	1b080301 	0x1b080301
  34:	13082508 	beq	t8,t0,9458 <DP3_SSEG_EN+0x9360>
  38:	00000005 	lsa	zero,zero,zero,0x1
  3c:	10001101 	b	4444 <DP3_SSEG_EN+0x434c>
  40:	12011106 	beq	s0,at,445c <DP3_SSEG_EN+0x4364>
  44:	1b080301 	0x1b080301
  48:	13082508 	beq	t8,t0,946c <DP3_SSEG_EN+0x9374>
  4c:	00000005 	lsa	zero,zero,zero,0x1
  50:	10001101 	b	4458 <DP3_SSEG_EN+0x4360>
  54:	12011106 	beq	s0,at,4470 <DP3_SSEG_EN+0x4378>
  58:	1b080301 	0x1b080301
  5c:	13082508 	beq	t8,t0,9480 <DP3_SSEG_EN+0x9388>
  60:	00000005 	lsa	zero,zero,zero,0x1

Disassembly of section .debug_line:

00000000 <.debug_line>:
   0:	00000044 	0x44
   4:	001d0002 	srl	zero,sp,0x0
   8:	01010000 	0x1010000
   c:	000d0efb 	0xd0efb
  10:	01010101 	0x1010101
  14:	01000000 	0x1000000
  18:	00010000 	sll	zero,at,0x0
  1c:	30747263 	andi	s4,v1,0x7263
  20:	0000532e 	0x532e
  24:	00000000 	nop
  28:	01440205 	0x1440205
  2c:	0f039fc0 	jal	c0e7f00 <__memory_size+0xc0c8700>
  30:	84844c01 	lh	a0,19457(a0)
  34:	4b848383 	c2	0x1848383
  38:	4e4c8513 	c3	0x4c8513
  3c:	4d4b4b4b 	0x4d4b4b4b
  40:	024b8583 	0x24b8583
  44:	01010008 	0x1010008
  48:	00000082 	srl	zero,zero,0x2
  4c:	001d0002 	srl	zero,sp,0x0
  50:	01010000 	0x1010000
  54:	000d0efb 	0xd0efb
  58:	01010101 	0x1010101
  5c:	01000000 	0x1000000
  60:	00010000 	sll	zero,at,0x0
  64:	746f6f62 	jalx	1bdbd88 <__memory_size+0x1bbc588>
  68:	0000532e 	0x532e
  6c:	00000000 	nop
  70:	00000205 	0x205
  74:	13039fc0 	beq	t8,v1,fffe7f78 <BLANK+0xfe7f78>
  78:	4d835101 	0x4d835101
  7c:	4a0a034d 	c2	0xa034d
  80:	4d4b4b4b 	0x4d4b4b4b
  84:	4b4b4b4b 	c2	0x14b4b4b
  88:	4b4d4b4b 	c2	0x14d4b4b
  8c:	4c4b4b4b 	0x4c4b4b4b
  90:	4b4b514b 	c2	0x14b514b
  94:	4c4b4c4b 	0x4c4b4c4b
  98:	4b4c4b4b 	c2	0x14c4b4b
  9c:	4b4c4b4b 	c2	0x14c4b4b
  a0:	4b4b4b4f 	c2	0x14b4b4f
  a4:	4b4a0c03 	c2	0x14a0c03
  a8:	834c4b4b 	lb	t4,19275(k0)
  ac:	4b4b504b 	c2	0x14b504b
  b0:	4c4b4c4b 	0x4c4b4c4b
  b4:	4b4c4b4b 	c2	0x14c4b4b
  b8:	4b4c4b4b 	c2	0x14c4b4b
  bc:	4b4b4f4b 	c2	0x14b4f4b
  c0:	4c834f4b 	0x4c834f4b
  c4:	504e4b83 	beql	v0,t6,12ed4 <DP3_SSEG_EN+0x12ddc>
  c8:	0004024b 	0x4024b
  cc:	00490101 	0x490101
  d0:	00020000 	sll	zero,v0,0x0
  d4:	00000023 	negu	zero,zero
  d8:	0efb0101 	jal	bec0404 <__memory_size+0xbea0c04>
  dc:	0101000d 	break	0x101
  e0:	00000101 	0x101
  e4:	00000100 	sll	zero,zero,0x4
  e8:	78650001 	bmnzi.b	$w0,$w0,0x65
  ec:	74706563 	jalx	1c1958c <__memory_size+0x1bf9d8c>
  f0:	736e6f69 	0x736e6f69
  f4:	0000532e 	0x532e
  f8:	00000000 	nop
  fc:	00000205 	0x205
 100:	2c038000 	sltiu	v1,zero,-32768
 104:	02838301 	0x2838301
 108:	83831770 	lb	v1,6000(gp)
 10c:	83177002 	lb	s7,28674(t8)
 110:	17700283 	bne	k1,s0,b20 <DP3_SSEG_EN+0xa28>
 114:	08028383 	j	a0e0c <__memory_size+0x8160c>
 118:	33010100 	andi	at,t8,0x100
 11c:	02000000 	0x2000000
 120:	00001e00 	sll	v1,zero,0x18
 124:	fb010100 	sdc2	$1,256(t8)
 128:	01000d0e 	0x1000d0e
 12c:	00010101 	0x10101
 130:	00010000 	sll	zero,at,0x0
 134:	64000100 	0x64000100
 138:	796d6d75 	0x796d6d75
 13c:	0000532e 	0x532e
 140:	00000000 	nop
 144:	02000205 	0x2000205
 148:	3a038000 	xori	v1,s0,0x8000
 14c:	00040201 	0x40201
 150:	01360101 	0x1360101
 154:	00020000 	sll	zero,v0,0x0
 158:	0000001d 	0x1d
 15c:	0efb0101 	jal	bec0404 <__memory_size+0xbea0c04>
 160:	0101000d 	break	0x101
 164:	00000101 	0x101
 168:	00000100 	sll	zero,zero,0x4
 16c:	616d0001 	0x616d0001
 170:	532e6e69 	beql	t9,t6,1bb18 <DP3_SSEG_EN+0x1ba20>
 174:	00000000 	nop
 178:	02050000 	0x2050000
 17c:	80000204 	lb	zero,516(zero)
 180:	0100c103 	0x100c103
 184:	8583834b 	lh	v1,-31925(t4)
 188:	4d4d4d4b 	0x4d4d4d4b
 18c:	4b4b4e4d 	c2	0x14b4e4d
 190:	4b4cbb4b 	c2	0x14cbb4b
 194:	4e4b4b4b 	c3	0x4b4b4b
 198:	854d4d4b 	lh	t5,19787(t2)
 19c:	4d4d854b 	0x4d4d854b
 1a0:	4b514d87 	c2	0x1514d87
 1a4:	4b854b83 	c2	0x1854b83
 1a8:	4b834b85 	c2	0x1834b85
 1ac:	4b854b85 	c2	0x1854b85
 1b0:	85894b85 	lh	t1,19333(t4)
 1b4:	88504d4d 	lwl	s0,19789(v0)
 1b8:	854d4d4b 	lh	t5,19787(t2)
 1bc:	854d4d4d 	lh	t5,19789(t2)
 1c0:	4d834d4b 	0x4d834d4b
 1c4:	4d858750 	0x4d858750
 1c8:	4b87504d 	c2	0x187504d
 1cc:	4d854d4d 	0x4d854d4d
 1d0:	4b854d4d 	c2	0x1854d4d
 1d4:	504d834d 	beql	v0,t5,fffe0f0c <BLANK+0xfe0f0c>
 1d8:	4d4d8587 	0x4d4d8587
 1dc:	4d4b8750 	0x4d4b8750
 1e0:	4d4d854d 	0x4d4d854d
 1e4:	4d4b854d 	0x4d4b854d
 1e8:	87504d83 	lh	s0,19843(k0)
 1ec:	504d4d85 	beql	v0,t5,13804 <DP3_SSEG_EN+0x1370c>
 1f0:	4d4d4b86 	0x4d4d4b86
 1f4:	4d4d4d85 	0x4d4d4d85
 1f8:	834d4b85 	lb	t5,19333(k0)
 1fc:	8587504d 	lh	a3,20557(t4)
 200:	86504d4d 	lh	s0,19789(s2)
 204:	854d4d4b 	lh	t5,19787(t2)
 208:	854d4d4b 	lh	t5,19787(t2)
 20c:	4d4d4d83 	0x4d4d4d83
 210:	4d4d8387 	0x4d4d8387
 214:	4d4b874d 	0x4d4b874d
 218:	4d4b854d 	0x4d4b854d
 21c:	4d83854d 	0x4d83854d
 220:	83874d4d 	lb	a3,19789(gp)
 224:	864d4d4d 	lh	t5,19789(s2)
 228:	864b864c 	lh	t3,-31156(s2)
 22c:	4b854b4b 	c2	0x1854b4b
 230:	854b4b4d 	lh	t3,19277(t2)
 234:	864c4d4b 	lh	t4,19787(s2)
 238:	8a4c874c 	lwl	t4,-30900(s2)
 23c:	4b4b854b 	c2	0x14b854b
 240:	4b4b864b 	c2	0x14b864b
 244:	4b4b854b 	c2	0x14b854b
 248:	4d4b874b 	0x4d4b874b
 24c:	4d4b864c 	0x4d4b864c
 250:	4d4b4b4b 	0x4d4b4b4b
 254:	4b874c4b 	c2	0x1874c4b
 258:	874c4b4d 	lh	t4,19277(k0)
 25c:	4b884c4b 	c2	0x1884c4b
 260:	4b4d4b4b 	c2	0x14d4b4b
 264:	4d4b4d4b 	0x4d4b4d4b
 268:	514d4d4b 	beql	t2,t5,13798 <DP3_SSEG_EN+0x136a0>
 26c:	86838683 	lh	v1,-31101(s4)
 270:	86838683 	lh	v1,-31101(s4)
 274:	86838683 	lh	v1,-31101(s4)
 278:	86838683 	lh	v1,-31101(s4)
 27c:	85838683 	lh	v1,-31101(t4)
 280:	504d864d 	beql	v0,t5,fffe1bb8 <BLANK+0xfe1bb8>
 284:	024f504e 	0x24f504e
 288:	01010008 	0x1010008

Disassembly of section .pdr:

00000000 <.pdr>:
   0:	9fc00144 	0x9fc00144
	...
  20:	9fc00000 	0x9fc00000
	...
  40:	80000000 	lb	zero,0(zero)
	...
  60:	80000200 	lb	zero,512(zero)
	...
  80:	80000200 	lb	zero,512(zero)
	...
  a0:	80000200 	lb	zero,512(zero)
	...
  c0:	80000200 	lb	zero,512(zero)
	...
  e0:	80000200 	lb	zero,512(zero)
	...

Disassembly of section .gnu.attributes:

00000000 <.gnu.attributes>:
   0:	00000f41 	0xf41
   4:	756e6700 	jalx	5b99c00 <__memory_size+0x5b7a400>
   8:	00070100 	sll	zero,a3,0x4
   c:	03040000 	0x3040000
